target datalayout = "e-m:e-p270:32:32-p271:32:32-p272:64:64-i64:64-i128:128-f80:128-n8:16:32:64-S128"
target triple = "x86_64-pc-linux-gnu"

%struct.Bac_Man_t_ = type { ptr, ptr, ptr, ptr, i32, i32, ptr, ptr, ptr, %struct.Vec_Int_t_, %struct.Vec_Int_t_, %struct.Vec_Int_t_, %struct.Vec_Int_t_, ptr, ptr, [4 x i32], [73 x ptr], [73 x ptr] }
%struct.Vec_Int_t_ = type { i32, i32, ptr }

@.str.1 = private unnamed_addr constant [45 x i8] c"The standard cell library is not available.\0A\00", align 1

; Function Attrs: nounwind uwtable
define i32 @Bac_NtkBuildLibrary(ptr noundef %0) #0 {
  %2 = alloca ptr, align 8
  %3 = alloca i32, align 4
  %4 = alloca ptr, align 8
  store ptr %0, ptr %2, align 8
  store i32 1, ptr %3, align 4
  %5 = call ptr (...) @Abc_FrameReadLibGen()
  store ptr %5, ptr %4, align 8
  %6 = load ptr, ptr %4, align 8
  %7 = icmp eq ptr %6, null
  br i1 %7, label %8, label %10

8:                                                ; preds = %1
  %9 = call i32 (ptr, ...) @printf(ptr noundef @.str.1)
  store i32 0, ptr %3, align 4
  br label %13

10:                                               ; preds = %1
  %11 = load ptr, ptr %2, align 8
  %12 = load ptr, ptr %4, align 8
  call void @Bac_NtkPrepareLibrary(ptr noundef %11, ptr noundef %12)
  br label %13

13:                                               ; preds = %10, %8
  %14 = load ptr, ptr %4, align 8
  %15 = load ptr, ptr %2, align 8
  %16 = getelementptr inbounds %struct.Bac_Man_t_, ptr %15, i32 0, i32 13
  store ptr %14, ptr %16, align 8
  %17 = load i32, ptr %3, align 4
  ret i32 %17
}