; Function Attrs: nounwind uwtable
define range(i32 0, 2) i32 @Bac_NtkBuildLibrary(ptr noundef captures(none) %0) local_unnamed_addr #0 {
  %2 = tail call ptr (...) @Abc_FrameReadLibGen() #17
  %3 = icmp eq ptr %2, null
  br i1 %3, label %4, label %5

4:                                                ; preds = %1
  %puts = tail call i32 @puts(ptr nonnull dereferenceable(1) @str.1)
  br label %6

5:                                                ; preds = %1
  tail call void @Bac_NtkPrepareLibrary(ptr noundef %0, ptr noundef nonnull %2)
  br label %6

6:                                                ; preds = %5, %4
  %.0 = phi i32 [ 0, %4 ], [ 1, %5 ]
  %7 = getelementptr inbounds nuw i8, ptr %0, i64 128
  store ptr %2, ptr %7, align 8
  ret i32 %.0
}